target datalayout = "e-m:e-p270:32:32-p271:32:32-p272:64:64-i64:64-i128:128-f80:128-n8:16:32:64-S128"
target triple = "x86_64-pc-linux-gnu"

%struct.jpeg_compress_struct = type { ptr, ptr, ptr, ptr, i32, i32, ptr, i32, i32, i32, i32, double, i32, i32, i32, ptr, [4 x ptr], [4 x ptr], [4 x ptr], [16 x i8], [16 x i8], [16 x i8], i32, ptr, i32, i32, i32, i32, i32, i32, i32, i32, i32, i8, i8, i8, i16, i16, i32, i32, i32, i32, i32, i32, i32, [4 x ptr], i32, i32, i32, [10 x i32], i32, i32, i32, i32, ptr, ptr, ptr, ptr, ptr, ptr, ptr, ptr, ptr, ptr, i32 }
%struct.lhuff_entropy_encoder = type { %struct.jpeg_entropy_encoder, %struct.savable_state, i32, i32, [4 x ptr], [10 x ptr], [4 x ptr], [10 x ptr], [10 x ptr], i32, [10 x %struct.lhe_input_ptr_info], [10 x i32] }
%struct.jpeg_entropy_encoder = type { ptr, ptr, ptr, ptr }
%struct.savable_state = type { i64, i32 }
%struct.lhe_input_ptr_info = type { i32, i32, i32 }
%struct.jpeg_error_mgr = type { ptr, ptr, ptr, ptr, ptr, i32, %union.anon, i32, i64, ptr, i32, ptr, i32, i32 }
%union.anon = type { [8 x i32], [48 x i8] }
%struct.working_state = type { ptr, i64, %struct.savable_state, ptr }
%struct.jpeg_destination_mgr = type { ptr, i64, ptr, ptr, ptr }

; Function Attrs: nounwind uwtable
define internal i32 @dump_buffer(ptr noundef %0) #0 {
  %2 = alloca i32, align 4
  %3 = alloca ptr, align 8
  %4 = alloca ptr, align 8
  %5 = alloca i32, align 4
  store ptr %0, ptr %3, align 8, !tbaa !29
  call void @llvm.lifetime.start.p0(i64 8, ptr %4) #6
  %6 = load ptr, ptr %3, align 8, !tbaa !29
  %7 = getelementptr inbounds nuw %struct.working_state, ptr %6, i32 0, i32 3
  %8 = load ptr, ptr %7, align 8, !tbaa !90
  %9 = getelementptr inbounds nuw %struct.jpeg_compress_struct, ptr %8, i32 0, i32 6
  %10 = load ptr, ptr %9, align 8, !tbaa !81
  store ptr %10, ptr %4, align 8, !tbaa !98
  %11 = load ptr, ptr %4, align 8, !tbaa !98
  %12 = getelementptr inbounds nuw %struct.jpeg_destination_mgr, ptr %11, i32 0, i32 3
  %13 = load ptr, ptr %12, align 8, !tbaa !99
  %14 = load ptr, ptr %3, align 8, !tbaa !29
  %15 = getelementptr inbounds nuw %struct.working_state, ptr %14, i32 0, i32 3
  %16 = load ptr, ptr %15, align 8, !tbaa !90
  %17 = call i32 %13(ptr noundef %16)
  %18 = icmp ne i32 %17, 0
  br i1 %18, label %20, label %19

19:                                               ; preds = %1
  store i32 0, ptr %2, align 4
  store i32 1, ptr %5, align 4
  br label %31

20:                                               ; preds = %1
  %21 = load ptr, ptr %4, align 8, !tbaa !98
  %22 = getelementptr inbounds nuw %struct.jpeg_destination_mgr, ptr %21, i32 0, i32 0
  %23 = load ptr, ptr %22, align 8, !tbaa !82
  %24 = load ptr, ptr %3, align 8, !tbaa !29
  %25 = getelementptr inbounds nuw %struct.working_state, ptr %24, i32 0, i32 0
  store ptr %23, ptr %25, align 8, !tbaa !85
  %26 = load ptr, ptr %4, align 8, !tbaa !98
  %27 = getelementptr inbounds nuw %struct.jpeg_destination_mgr, ptr %26, i32 0, i32 1
  %28 = load i64, ptr %27, align 8, !tbaa !87
  %29 = load ptr, ptr %3, align 8, !tbaa !29
  %30 = getelementptr inbounds nuw %struct.working_state, ptr %29, i32 0, i32 1
  store i64 %28, ptr %30, align 8, !tbaa !88
  store i32 1, ptr %2, align 4
  store i32 1, ptr %5, align 4
  br label %31

31:                                               ; preds = %20, %19
  call void @llvm.lifetime.end.p0(i64 8, ptr %4) #6
  %32 = load i32, ptr %2, align 4
  ret i32 %32
}

; Function Attrs: alwaysinline nounwind uwtable
define internal i32 @emit_bits(ptr noundef %0, i32 noundef %1, i32 noundef %2) #5 {
  %4 = alloca i32, align 4
  %5 = alloca ptr, align 8
  %6 = alloca i32, align 4
  %7 = alloca i32, align 4
  %8 = alloca i64, align 8
  %9 = alloca i32, align 4
  %10 = alloca i32, align 4
  %11 = alloca i32, align 4
  store ptr %0, ptr %5, align 8, !tbaa !29
  store i32 %1, ptr %6, align 4, !tbaa !35
  store i32 %2, ptr %7, align 4, !tbaa !35
  call void @llvm.lifetime.start.p0(i64 8, ptr %8) #6
  %12 = load i32, ptr %6, align 4, !tbaa !35
  %13 = zext i32 %12 to i64
  store i64 %13, ptr %8, align 8, !tbaa !77
  call void @llvm.lifetime.start.p0(i64 4, ptr %9) #6
  %14 = load ptr, ptr %5, align 8, !tbaa !29
  %15 = getelementptr inbounds nuw %struct.working_state, ptr %14, i32 0, i32 2
  %16 = getelementptr inbounds nuw %struct.savable_state, ptr %15, i32 0, i32 1
  %17 = load i32, ptr %16, align 8, !tbaa !95
  store i32 %17, ptr %9, align 4, !tbaa !35
  %18 = load i32, ptr %7, align 4, !tbaa !35
  %19 = icmp eq i32 %18, 0
  br i1 %19, label %20, label %37

20:                                               ; preds = %3
  %21 = load ptr, ptr %5, align 8, !tbaa !29
  %22 = getelementptr inbounds nuw %struct.working_state, ptr %21, i32 0, i32 3
  %23 = load ptr, ptr %22, align 8, !tbaa !90
  %24 = getelementptr inbounds nuw %struct.jpeg_compress_struct, ptr %23, i32 0, i32 0
  %25 = load ptr, ptr %24, align 8, !tbaa !45
  %26 = getelementptr inbounds nuw %struct.jpeg_error_mgr, ptr %25, i32 0, i32 5
  store i32 40, ptr %26, align 8, !tbaa !46
  %27 = load ptr, ptr %5, align 8, !tbaa !29
  %28 = getelementptr inbounds nuw %struct.working_state, ptr %27, i32 0, i32 3
  %29 = load ptr, ptr %28, align 8, !tbaa !90
  %30 = getelementptr inbounds nuw %struct.jpeg_compress_struct, ptr %29, i32 0, i32 0
  %31 = load ptr, ptr %30, align 8, !tbaa !45
  %32 = getelementptr inbounds nuw %struct.jpeg_error_mgr, ptr %31, i32 0, i32 0
  %33 = load ptr, ptr %32, align 8, !tbaa !50
  %34 = load ptr, ptr %5, align 8, !tbaa !29
  %35 = getelementptr inbounds nuw %struct.working_state, ptr %34, i32 0, i32 3
  %36 = load ptr, ptr %35, align 8, !tbaa !90
  call void %33(ptr noundef %36)
  br label %37

37:                                               ; preds = %20, %3
  %38 = load i32, ptr %7, align 4, !tbaa !35
  %39 = zext i32 %38 to i64
  %40 = shl i64 1, %39
  %41 = sub i64 %40, 1
  %42 = load i64, ptr %8, align 8, !tbaa !77
  %43 = and i64 %42, %41
  store i64 %43, ptr %8, align 8, !tbaa !77
  %44 = load i32, ptr %7, align 4, !tbaa !35
  %45 = load i32, ptr %9, align 4, !tbaa !35
  %46 = add nsw i32 %45, %44
  store i32 %46, ptr %9, align 4, !tbaa !35
  %47 = load i32, ptr %9, align 4, !tbaa !35
  %48 = sub nsw i32 24, %47
  %49 = load i64, ptr %8, align 8, !tbaa !77
  %50 = zext i32 %48 to i64
  %51 = shl i64 %49, %50
  store i64 %51, ptr %8, align 8, !tbaa !77
  %52 = load ptr, ptr %5, align 8, !tbaa !29
  %53 = getelementptr inbounds nuw %struct.working_state, ptr %52, i32 0, i32 2
  %54 = getelementptr inbounds nuw %struct.savable_state, ptr %53, i32 0, i32 0
  %55 = load i64, ptr %54, align 8, !tbaa !96
  %56 = load i64, ptr %8, align 8, !tbaa !77
  %57 = or i64 %56, %55
  store i64 %57, ptr %8, align 8, !tbaa !77
  br label %58

58:                                               ; preds = %110, %37
  %59 = load i32, ptr %9, align 4, !tbaa !35
  %60 = icmp sge i32 %59, 8
  br i1 %60, label %61, label %111

61:                                               ; preds = %58
  call void @llvm.lifetime.start.p0(i64 4, ptr %10) #6
  %62 = load i64, ptr %8, align 8, !tbaa !77
  %63 = lshr i64 %62, 16
  %64 = and i64 %63, 255
  %65 = trunc i64 %64 to i32
  store i32 %65, ptr %10, align 4, !tbaa !35
  %66 = load i32, ptr %10, align 4, !tbaa !35
  %67 = trunc i32 %66 to i8
  %68 = load ptr, ptr %5, align 8, !tbaa !29
  %69 = getelementptr inbounds nuw %struct.working_state, ptr %68, i32 0, i32 0
  %70 = load ptr, ptr %69, align 8, !tbaa !85
  %71 = getelementptr inbounds nuw i8, ptr %70, i32 1
  store ptr %71, ptr %69, align 8, !tbaa !85
  store i8 %67, ptr %70, align 1, !tbaa !49
  %72 = load ptr, ptr %5, align 8, !tbaa !29
  %73 = getelementptr inbounds nuw %struct.working_state, ptr %72, i32 0, i32 1
  %74 = load i64, ptr %73, align 8, !tbaa !88
  %75 = add i64 %74, -1
  store i64 %75, ptr %73, align 8, !tbaa !88
  %76 = icmp eq i64 %75, 0
  br i1 %76, label %77, label %83

77:                                               ; preds = %61
  %78 = load ptr, ptr %5, align 8, !tbaa !29
  %79 = call i32 @dump_buffer(ptr noundef %78)
  %80 = icmp ne i32 %79, 0
  br i1 %80, label %82, label %81

81:                                               ; preds = %77
  store i32 0, ptr %4, align 4
  store i32 1, ptr %11, align 4
  br label %108

82:                                               ; preds = %77
  br label %83

83:                                               ; preds = %82, %61
  %84 = load i32, ptr %10, align 4, !tbaa !35
  %85 = icmp eq i32 %84, 255
  br i1 %85, label %86, label %103

86:                                               ; preds = %83
  %87 = load ptr, ptr %5, align 8, !tbaa !29
  %88 = getelementptr inbounds nuw %struct.working_state, ptr %87, i32 0, i32 0
  %89 = load ptr, ptr %88, align 8, !tbaa !85
  %90 = getelementptr inbounds nuw i8, ptr %89, i32 1
  store ptr %90, ptr %88, align 8, !tbaa !85
  store i8 0, ptr %89, align 1, !tbaa !49
  %91 = load ptr, ptr %5, align 8, !tbaa !29
  %92 = getelementptr inbounds nuw %struct.working_state, ptr %91, i32 0, i32 1
  %93 = load i64, ptr %92, align 8, !tbaa !88
  %94 = add i64 %93, -1
  store i64 %94, ptr %92, align 8, !tbaa !88
  %95 = icmp eq i64 %94, 0
  br i1 %95, label %96, label %102

96:                                               ; preds = %86
  %97 = load ptr, ptr %5, align 8, !tbaa !29
  %98 = call i32 @dump_buffer(ptr noundef %97)
  %99 = icmp ne i32 %98, 0
  br i1 %99, label %101, label %100

100:                                              ; preds = %96
  store i32 0, ptr %4, align 4
  store i32 1, ptr %11, align 4
  br label %108

101:                                              ; preds = %96
  br label %102

102:                                              ; preds = %101, %86
  br label %103

103:                                              ; preds = %102, %83
  %104 = load i64, ptr %8, align 8, !tbaa !77
  %105 = shl i64 %104, 8
  store i64 %105, ptr %8, align 8, !tbaa !77
  %106 = load i32, ptr %9, align 4, !tbaa !35
  %107 = sub nsw i32 %106, 8
  store i32 %107, ptr %9, align 4, !tbaa !35
  store i32 0, ptr %11, align 4
  br label %108

108:                                              ; preds = %103, %100, %81
  call void @llvm.lifetime.end.p0(i64 4, ptr %10) #6
  %109 = load i32, ptr %11, align 4
  switch i32 %109, label %120 [
    i32 0, label %110
  ]

110:                                              ; preds = %108
  br label %58, !llvm.loop !97

111:                                              ; preds = %58
  %112 = load i64, ptr %8, align 8, !tbaa !77
  %113 = load ptr, ptr %5, align 8, !tbaa !29
  %114 = getelementptr inbounds nuw %struct.working_state, ptr %113, i32 0, i32 2
  %115 = getelementptr inbounds nuw %struct.savable_state, ptr %114, i32 0, i32 0
  store i64 %112, ptr %115, align 8, !tbaa !96
  %116 = load i32, ptr %9, align 4, !tbaa !35
  %117 = load ptr, ptr %5, align 8, !tbaa !29
  %118 = getelementptr inbounds nuw %struct.working_state, ptr %117, i32 0, i32 2
  %119 = getelementptr inbounds nuw %struct.savable_state, ptr %118, i32 0, i32 1
  store i32 %116, ptr %119, align 8, !tbaa !95
  store i32 1, ptr %4, align 4
  store i32 1, ptr %11, align 4
  br label %120

120:                                              ; preds = %111, %108
  call void @llvm.lifetime.end.p0(i64 4, ptr %9) #6
  call void @llvm.lifetime.end.p0(i64 8, ptr %8) #6
  %121 = load i32, ptr %4, align 4
  ret i32 %121
}

; Function Attrs: nounwind uwtable
define internal i32 @flush_bits(ptr noundef %0) #0 {
  %2 = alloca i32, align 4
  %3 = alloca ptr, align 8
  store ptr %0, ptr %3, align 8, !tbaa !29
  %4 = load ptr, ptr %3, align 8, !tbaa !29
  %5 = call i32 @emit_bits(ptr noundef %4, i32 noundef 127, i32 noundef 7)
  %6 = icmp ne i32 %5, 0
  br i1 %6, label %8, label %7

7:                                                ; preds = %1
  store i32 0, ptr %2, align 4
  br label %15

8:                                                ; preds = %1
  %9 = load ptr, ptr %3, align 8, !tbaa !29
  %10 = getelementptr inbounds nuw %struct.working_state, ptr %9, i32 0, i32 2
  %11 = getelementptr inbounds nuw %struct.savable_state, ptr %10, i32 0, i32 0
  store i64 0, ptr %11, align 8, !tbaa !96
  %12 = load ptr, ptr %3, align 8, !tbaa !29
  %13 = getelementptr inbounds nuw %struct.working_state, ptr %12, i32 0, i32 2
  %14 = getelementptr inbounds nuw %struct.savable_state, ptr %13, i32 0, i32 1
  store i32 0, ptr %14, align 8, !tbaa !95
  store i32 1, ptr %2, align 4
  br label %15

15:                                               ; preds = %8, %7
  %16 = load i32, ptr %2, align 4
  ret i32 %16
}

; Function Attrs: nounwind uwtable
define internal void @finish_pass_huff(ptr noundef %0) #0 {
  %2 = alloca ptr, align 8
  %3 = alloca ptr, align 8
  %4 = alloca %struct.working_state, align 8
  store ptr %0, ptr %2, align 8, !tbaa !3
  call void @llvm.lifetime.start.p0(i64 8, ptr %3) #6
  %5 = load ptr, ptr %2, align 8, !tbaa !3
  %6 = getelementptr inbounds nuw %struct.jpeg_compress_struct, ptr %5, i32 0, i32 62
  %7 = load ptr, ptr %6, align 8, !tbaa !30
  store ptr %7, ptr %3, align 8, !tbaa !29
  call void @llvm.lifetime.start.p0(i64 40, ptr %4) #6
  %8 = load ptr, ptr %2, align 8, !tbaa !3
  %9 = getelementptr inbounds nuw %struct.jpeg_compress_struct, ptr %8, i32 0, i32 6
  %10 = load ptr, ptr %9, align 8, !tbaa !81
  %11 = getelementptr inbounds nuw %struct.jpeg_destination_mgr, ptr %10, i32 0, i32 0
  %12 = load ptr, ptr %11, align 8, !tbaa !82
  %13 = getelementptr inbounds nuw %struct.working_state, ptr %4, i32 0, i32 0
  store ptr %12, ptr %13, align 8, !tbaa !85
  %14 = load ptr, ptr %2, align 8, !tbaa !3
  %15 = getelementptr inbounds nuw %struct.jpeg_compress_struct, ptr %14, i32 0, i32 6
  %16 = load ptr, ptr %15, align 8, !tbaa !81
  %17 = getelementptr inbounds nuw %struct.jpeg_destination_mgr, ptr %16, i32 0, i32 1
  %18 = load i64, ptr %17, align 8, !tbaa !87
  %19 = getelementptr inbounds nuw %struct.working_state, ptr %4, i32 0, i32 1
  store i64 %18, ptr %19, align 8, !tbaa !88
  %20 = getelementptr inbounds nuw %struct.working_state, ptr %4, i32 0, i32 2
  %21 = load ptr, ptr %3, align 8, !tbaa !29
  %22 = getelementptr inbounds nuw %struct.lhuff_entropy_encoder, ptr %21, i32 0, i32 1
  call void @llvm.memcpy.p0.p0.i64(ptr align 8 %20, ptr align 8 %22, i64 16, i1 false), !tbaa.struct !89
  %23 = load ptr, ptr %2, align 8, !tbaa !3
  %24 = getelementptr inbounds nuw %struct.working_state, ptr %4, i32 0, i32 3
  store ptr %23, ptr %24, align 8, !tbaa !90
  %25 = call i32 @flush_bits(ptr noundef %4)
  %26 = icmp ne i32 %25, 0
  br i1 %26, label %38, label %27

27:                                               ; preds = %1
  %28 = load ptr, ptr %2, align 8, !tbaa !3
  %29 = getelementptr inbounds nuw %struct.jpeg_compress_struct, ptr %28, i32 0, i32 0
  %30 = load ptr, ptr %29, align 8, !tbaa !45
  %31 = getelementptr inbounds nuw %struct.jpeg_error_mgr, ptr %30, i32 0, i32 5
  store i32 24, ptr %31, align 8, !tbaa !46
  %32 = load ptr, ptr %2, align 8, !tbaa !3
  %33 = getelementptr inbounds nuw %struct.jpeg_compress_struct, ptr %32, i32 0, i32 0
  %34 = load ptr, ptr %33, align 8, !tbaa !45
  %35 = getelementptr inbounds nuw %struct.jpeg_error_mgr, ptr %34, i32 0, i32 0
  %36 = load ptr, ptr %35, align 8, !tbaa !50
  %37 = load ptr, ptr %2, align 8, !tbaa !3
  call void %36(ptr noundef %37)
  br label %38

38:                                               ; preds = %27, %1
  %39 = getelementptr inbounds nuw %struct.working_state, ptr %4, i32 0, i32 0
  %40 = load ptr, ptr %39, align 8, !tbaa !85
  %41 = load ptr, ptr %2, align 8, !tbaa !3
  %42 = getelementptr inbounds nuw %struct.jpeg_compress_struct, ptr %41, i32 0, i32 6
  %43 = load ptr, ptr %42, align 8, !tbaa !81
  %44 = getelementptr inbounds nuw %struct.jpeg_destination_mgr, ptr %43, i32 0, i32 0
  store ptr %40, ptr %44, align 8, !tbaa !82
  %45 = getelementptr inbounds nuw %struct.working_state, ptr %4, i32 0, i32 1
  %46 = load i64, ptr %45, align 8, !tbaa !88
  %47 = load ptr, ptr %2, align 8, !tbaa !3
  %48 = getelementptr inbounds nuw %struct.jpeg_compress_struct, ptr %47, i32 0, i32 6
  %49 = load ptr, ptr %48, align 8, !tbaa !81
  %50 = getelementptr inbounds nuw %struct.jpeg_destination_mgr, ptr %49, i32 0, i32 1
  store i64 %46, ptr %50, align 8, !tbaa !87
  %51 = load ptr, ptr %3, align 8, !tbaa !29
  %52 = getelementptr inbounds nuw %struct.lhuff_entropy_encoder, ptr %51, i32 0, i32 1
  %53 = getelementptr inbounds nuw %struct.working_state, ptr %4, i32 0, i32 2
  call void @llvm.memcpy.p0.p0.i64(ptr align 8 %52, ptr align 8 %53, i64 16, i1 false), !tbaa.struct !89
  call void @llvm.lifetime.end.p0(i64 40, ptr %4) #6
  call void @llvm.lifetime.end.p0(i64 8, ptr %3) #6
  ret void
}