; Function Attrs: nounwind uwtable
define internal void @finish_pass_huff(ptr noundef %0) #0 {
  %2 = getelementptr inbounds nuw i8, ptr %0, i64 496
  %3 = load ptr, ptr %2, align 8, !tbaa !27
  %4 = getelementptr inbounds nuw i8, ptr %0, i64 40
  %5 = load ptr, ptr %4, align 8, !tbaa !77
  %6 = load ptr, ptr %5, align 8, !tbaa !78
  %7 = getelementptr inbounds nuw i8, ptr %5, i64 8
  %8 = load i64, ptr %7, align 8, !tbaa !81
  %9 = getelementptr inbounds nuw i8, ptr %3, i64 32
  %.sroa.18.16.copyload15 = load i64, ptr %9, align 8, !tbaa !73
  %.sroa.22.16..sroa_idx16 = getelementptr inbounds nuw i8, ptr %3, i64 40
  %.sroa.22.16.copyload17 = load i32, ptr %.sroa.22.16..sroa_idx16, align 8, !tbaa !50
  %.sroa.24.16..sroa_idx18 = getelementptr inbounds nuw i8, ptr %3, i64 44
  %.sroa.24.16.copyload19 = load i32, ptr %.sroa.24.16..sroa_idx18, align 4
  %10 = icmp sgt i32 %.sroa.22.16.copyload17, 0
  br i1 %10, label %.lr.ph.i, label %flush_bits.exit

.lr.ph.i:                                         ; preds = %1
  %11 = sub nsw i32 17, %.sroa.22.16.copyload17
  %12 = zext nneg i32 %11 to i64
  %13 = shl i64 127, %12
  %14 = or i64 %13, %.sroa.18.16.copyload15
  %15 = add nuw nsw i32 %.sroa.22.16.copyload17, 7
  br label %16

16:                                               ; preds = %45, %.lr.ph.i
  %.sroa.10.1 = phi i64 [ %8, %.lr.ph.i ], [ %.sroa.10.3, %45 ]
  %.sroa.0.1 = phi ptr [ %6, %.lr.ph.i ], [ %.sroa.0.3, %45 ]
  %.032.i19.i = phi i32 [ %15, %.lr.ph.i ], [ %47, %45 ]
  %.034.i18.i = phi i64 [ %14, %.lr.ph.i ], [ %46, %45 ]
  %17 = lshr i64 %.034.i18.i, 16
  %18 = trunc i64 %17 to i8
  %19 = getelementptr inbounds nuw i8, ptr %.sroa.0.1, i64 1
  store i8 %18, ptr %.sroa.0.1, align 1, !tbaa !47
  %20 = add i64 %.sroa.10.1, -1
  %21 = icmp eq i64 %20, 0
  br i1 %21, label %22, label %30

22:                                               ; preds = %16
  %23 = load ptr, ptr %4, align 8, !tbaa !77
  %24 = getelementptr inbounds nuw i8, ptr %23, i64 24
  %25 = load ptr, ptr %24, align 8, !tbaa !82
  %26 = tail call i32 %25(ptr noundef %0) #6
  %.not.i3.i = icmp eq i32 %26, 0
  br i1 %.not.i3.i, label %49, label %dump_buffer.exit.i

dump_buffer.exit.i:                               ; preds = %22
  %27 = load ptr, ptr %23, align 8, !tbaa !78
  %28 = getelementptr inbounds nuw i8, ptr %23, i64 8
  %29 = load i64, ptr %28, align 8, !tbaa !81
  br label %30

30:                                               ; preds = %dump_buffer.exit.i, %16
  %.sroa.10.2 = phi i64 [ %29, %dump_buffer.exit.i ], [ %20, %16 ]
  %.sroa.0.2 = phi ptr [ %27, %dump_buffer.exit.i ], [ %19, %16 ]
  %31 = and i64 %.034.i18.i, 16711680
  %32 = icmp eq i64 %31, 16711680
  br i1 %32, label %33, label %45

33:                                               ; preds = %30
  %34 = getelementptr inbounds nuw i8, ptr %.sroa.0.2, i64 1
  store i8 0, ptr %.sroa.0.2, align 1, !tbaa !47
  %35 = add i64 %.sroa.10.2, -1
  %36 = icmp eq i64 %35, 0
  br i1 %36, label %37, label %45

37:                                               ; preds = %33
  %38 = load ptr, ptr %4, align 8, !tbaa !77
  %39 = getelementptr inbounds nuw i8, ptr %38, i64 24
  %40 = load ptr, ptr %39, align 8, !tbaa !82
  %41 = tail call i32 %40(ptr noundef %0) #6
  %.not.i4.i = icmp eq i32 %41, 0
  br i1 %.not.i4.i, label %49, label %dump_buffer.exit6.i

dump_buffer.exit6.i:                              ; preds = %37
  %42 = load ptr, ptr %38, align 8, !tbaa !78
  %43 = getelementptr inbounds nuw i8, ptr %38, i64 8
  %44 = load i64, ptr %43, align 8, !tbaa !81
  br label %45

45:                                               ; preds = %dump_buffer.exit6.i, %33, %30
  %.sroa.10.3 = phi i64 [ %44, %dump_buffer.exit6.i ], [ %35, %33 ], [ %.sroa.10.2, %30 ]
  %.sroa.0.3 = phi ptr [ %42, %dump_buffer.exit6.i ], [ %34, %33 ], [ %.sroa.0.2, %30 ]
  %46 = shl i64 %.034.i18.i, 8
  %47 = add nsw i32 %.032.i19.i, -8
  %48 = icmp sgt i32 %.032.i19.i, 15
  br i1 %48, label %16, label %flush_bits.exit, !llvm.loop !83

49:                                               ; preds = %37, %22
  %.sroa.0.4.ph = phi ptr [ %34, %37 ], [ %19, %22 ]
  %50 = load ptr, ptr %0, align 8, !tbaa !43
  %51 = getelementptr inbounds nuw i8, ptr %50, i64 40
  store i32 24, ptr %51, align 8, !tbaa !44
  %52 = load ptr, ptr %50, align 8, !tbaa !48
  tail call void %52(ptr noundef nonnull %0) #6
  br label %flush_bits.exit

flush_bits.exit:                                  ; preds = %45, %1, %49
  %.sroa.0.434 = phi ptr [ %.sroa.0.4.ph, %49 ], [ %6, %1 ], [ %.sroa.0.3, %45 ]
  %.sroa.10.432 = phi i64 [ 0, %49 ], [ %8, %1 ], [ %.sroa.10.3, %45 ]
  %.sroa.18.030 = phi i64 [ %.sroa.18.16.copyload15, %49 ], [ 0, %1 ], [ 0, %45 ]
  %.sroa.22.028 = phi i32 [ %.sroa.22.16.copyload17, %49 ], [ 0, %1 ], [ 0, %45 ]
  %53 = load ptr, ptr %4, align 8, !tbaa !77
  store ptr %.sroa.0.434, ptr %53, align 8, !tbaa !78
  %54 = getelementptr inbounds nuw i8, ptr %53, i64 8
  store i64 %.sroa.10.432, ptr %54, align 8, !tbaa !81
  store i64 %.sroa.18.030, ptr %9, align 8, !tbaa !73
  store i32 %.sroa.22.028, ptr %.sroa.22.16..sroa_idx16, align 8, !tbaa !50
  store i32 %.sroa.24.16.copyload19, ptr %.sroa.24.16..sroa_idx18, align 4
  ret void
}